(i__main__
Galaxy
p0
(dp1
S'costUnitTier'
p2
S'500r'
p3
sS'costNewHero'
p4
S'2000r'
p5
sS'costFleet'
p6
S'1000c'
p7
sS'costBattalion'
p8
S'1000c'
p9
sS'costUpgradeScanner'
p10
S'500c'
p11
sS'players'
p12
(lp13
sS'galaxyMap'
p14
(lp15
(lp16
asS'climates'
p17
(lp18
(i__main__
Climate
p19
(dp20
S'mapsSpace'
p21
(lp22
sS'mapsSpaceInfiltrate'
p23
(lp24
sS'mapsInfiltrate'
p25
(lp26
(i__main__
Map
p27
(dp28
S'game'
p29
S'Battlefront1EA'
p30
sS'name'
p31
S'Hoth'
p32
sS'modesDescription'
p33
(lp34
sS'modes'
p35
(lp36
S'heroBattle'
p37
aS'survival'
p38
aS'battle'
p39
asba(i__main__
Map
p40
(dp41
g29
S'Battlefront1EA'
p42
sg31
S'IceCaves'
p43
sg33
(lp44
sg35
(lp45
S'survival'
p46
asba(i__main__
Map
p47
(dp48
g29
S'Battlefront2EA'
p49
sg31
S'Hoth'
p50
sg33
(lp51
sg35
(lp52
S'onslaught'
p53
asba(i__main__
Map
p54
(dp55
g29
S'JediAcademy'
p56
sg31
S'Hoth'
p57
sg33
(lp58
sg35
(lp59
S'cap2'
p60
aS'duel'
p61
asbasg31
S'ClimateSnow'
p62
sS'mapsLand'
p63
(lp64
(i__main__
Map
p65
(dp66
g29
S'Battlefront1'
p67
sg31
S'RhenVarHarbor'
p68
sg33
(lp69
sg35
(lp70
S'conquest'
p71
asba(i__main__
Map
p72
(dp73
g29
S'Battlefront1'
p74
sg31
S'RhenVarCitadel'
p75
sg33
(lp76
sg35
(lp77
S'conquest'
p78
asba(i__main__
Map
p79
(dp80
g29
S'Battlefront2EA'
p81
sg31
S'Hoth'
p82
sg33
(lp83
sg35
(lp84
S'supremacy'
p85
aS'team) '
p86
asbasba(i__main__
Climate
p87
(dp88
g21
(lp89
sg23
(lp90
sg25
(lp91
(i__main__
Map
p92
(dp93
g29
S'Battlefront1EA'
p94
sg31
S'Sullust'
p95
sg33
(lp96
sg35
(lp97
S'survival'
p98
aS'heroBattle'
p99
aS'battle'
p100
asba(i__main__
Map
p101
(dp102
g29
S'JediAcademy'
p103
sg31
S'Taspir'
p104
sg33
(lp105
sg35
(lp106
S'duel'
p107
aS'teamDuel'
p108
asbasg31
S'ClimateLava'
p109
sg63
(lp110
(i__main__
Map
p111
(dp112
g29
S'Battlefront1EA'
p113
sg31
S'SorosuubComplex'
p114
sg33
(lp115
sg35
(lp116
S'walker'
p117
asbasba(i__main__
Climate
p118
(dp119
g21
(lp120
sg23
(lp121
sg25
(lp122
(i__main__
Map
p123
(dp124
g29
S'Battlefront1EA'
p125
sg31
S'Tatooine'
p126
sg33
(lp127
sg35
(lp128
S'survival'
p129
aS'heroBattle'
p130
aS'battle'
p131
asba(i__main__
Map
p132
(dp133
g29
S'Battlefront1EA'
p134
sg31
S'RebelDepot'
p135
sg33
(lp136
sg35
(lp137
S'survival'
p138
asba(i__main__
Map
p139
(dp140
g29
S'Battlefront2EA'
p141
sg31
S'MosEisely'
p142
sg33
(lp143
sg35
(lp144
S'onslaught'
p145
asbasg31
S'ClimateDesert'
p146
sg63
(lp147
(i__main__
Map
p148
(dp149
g29
S'Battlefront1EA'
p150
sg31
S'JundlandWastes'
p151
sg33
(lp152
sg35
(lp153
S'walker'
p154
asba(i__main__
Map
p155
(dp156
g29
S'Battlefront1EA'
p157
sg31
S'GraveyardOfGiants'
p158
sg33
(lp159
sg35
(lp160
S'walker'
p161
asba(i__main__
Map
p162
(dp163
g29
S'Battlefront2EA'
p164
sg31
S'MosEisley'
p165
sg33
(lp166
sg35
(lp167
S'supremacy'
p168
aS'defend'
p169
aS'team'
p170
asbasba(i__main__
Climate
p171
(dp172
g21
(lp173
sg23
(lp174
sg25
(lp175
(i__main__
Map
p176
(dp177
g29
S'Battlefront1EA'
p178
sg31
S'Endor'
p179
sg33
(lp180
sg35
(lp181
S'survival'
p182
aS'heroBattle'
p183
aS'battle'
p184
asba(i__main__
Map
p185
(dp186
g29
S'Battlefront2EA'
p187
sg31
S'Endor'
p188
sg33
(lp189
sg35
(lp190
S'onslaught'
p191
asbasg31
S'ClimateForest'
p192
sg63
(lp193
(i__main__
Map
p194
(dp195
g29
S'Battlefront1EA'
p196
sg31
S'EndorMoon'
p197
sg33
(lp198
sg35
(lp199
S'walker'
p200
asba(i__main__
Map
p201
(dp202
g29
S'Battlefront1EA'
p203
sg31
S'SurvivorsOfEndor'
p204
sg33
(lp205
sg35
(lp206
S'walker'
p207
asba(i__main__
Map
p208
(dp209
g29
S'Battlefront2EA'
p210
sg31
S'Endor'
p211
sg33
(lp212
sg35
(lp213
S'team'
p214
asbasba(i__main__
Climate
p215
(dp216
g21
(lp217
sg23
(lp218
sg25
(lp219
sg31
S'Mapsinfiltrate: (Kamino, cap1)'
p220
sg63
(lp221
sba(i__main__
Climate
p222
(dp223
g21
(lp224
(i__main__
Map
p225
(dp226
g29
S'Battlefront2'
p227
sg31
S'SpaceHoth'
p228
sg33
(lp229
sg35
(lp230
S'assault'
p231
asba(i__main__
Map
p232
(dp233
g29
S'Battlefront2'
p234
sg31
S'SpaceYavin'
p235
sg33
(lp236
sg35
(lp237
S'assault'
p238
asba(i__main__
Map
p239
(dp240
g29
S'Battlefront2'
p241
sg31
S'SpaceTatooine'
p242
sg33
(lp243
sg35
(lp244
S'assault'
p245
asba(i__main__
Map
p246
(dp247
g29
S'Battlefront2EA'
p248
sg31
S'Endor'
p249
sg33
(lp250
sg35
(lp251
S'assault'
p252
asba(i__main__
Map
p253
(dp254
g29
S'Battlefront2EA'
p255
sg31
S'FondorShipyard'
p256
sg33
(lp257
sg35
(lp258
S'assault'
p259
asba(i__main__
Map
p260
(dp261
g29
S'Squadrons'
p262
sg31
S'Esseles'
p263
sg33
(lp264
sg35
(lp265
S'assault'
p266
asba(i__main__
Map
p267
(dp268
g29
S'Squadrons'
p269
sg31
S'FostarHaven'
p270
sg33
(lp271
sg35
(lp272
S'assault'
p273
asba(i__main__
Map
p274
(dp275
g29
S'Squadrons'
p276
sg31
S'Galitan'
p277
sg33
(lp278
sg35
(lp279
S'assault'
p280
asba(i__main__
Map
p281
(dp282
g29
S'Squadrons'
p283
sg31
S'NadiriDockyards'
p284
sg33
(lp285
sg35
(lp286
S'assault'
p287
asba(i__main__
Map
p288
(dp289
g29
S'Squadrons'
p290
sg31
S'Sissubo'
p291
sg33
(lp292
sg35
(lp293
S'assault'
p294
asba(i__main__
Map
p295
(dp296
g29
S'Squadrons'
p297
sg31
S'Yavin'
p298
sg33
(lp299
sg35
(lp300
S'assault'
p301
asba(i__main__
Map
p302
(dp303
g29
S'Squadrons'
p304
sg31
S'ZavianAbyss'
p305
sg33
(lp306
sg35
(lp307
S'assault'
p308
asbasg23
(lp309
sg25
(lp310
(i__main__
Map
p311
(dp312
g29
S'Battlefront2'
p313
sg31
S'TantiveIV'
p314
sg33
(lp315
sg35
(lp316
S'cap1'
p317
asba(i__main__
Map
p318
(dp319
g29
S'Battlefront2'
p320
sg31
S'DeathStar'
p321
sg33
(lp322
sg35
(lp323
S'cap1'
p324
asba(i__main__
Map
p325
(dp326
g29
S'Battlefront2EA'
p327
sg31
S'DeathStar2'
p328
sg33
(lp329
sg35
(lp330
S'onslaught'
p331
asba(i__main__
Map
p332
(dp333
g29
S'JediAcademy'
p334
sg31
S'Vjun'
p335
sg33
(lp336
sg35
(lp337
S'teamDuel'
p338
aS'duel'
p339
asba(i__main__
Map
p340
(dp341
g29
S'JediAcademy'
p342
sg31
S'GeneratorRoom'
p343
sg33
(lp344
sg35
(lp345
S'duel'
p346
asba(i__main__
Map
p347
(dp348
g29
S'JediAcademy'
p349
sg31
S'ImperialShaft'
p350
sg33
(lp351
sg35
(lp352
S'duel'
p353
asba(i__main__
Map
p354
(dp355
g29
S'JediAcademy'
p356
sg31
S'ImprialControlRoom'
p357
sg33
(lp358
sg35
(lp359
S'duel'
p360
asba(i__main__
Map
p361
(dp362
g29
S'JediOutcast'
p363
sg31
S'imperialShuttleBay'
p364
sg33
(lp365
sg35
(lp366
S'duel'
p367
asba(i__main__
Map
p368
(dp369
g29
S'JediOutcast'
p370
sg31
S'HangarBay72'
p371
sg33
(lp372
sg35
(lp373
S'duel'
p374
asba(i__main__
Map
p375
(dp376
g29
S'JediOutcast'
p377
sg31
S'ImperialLabsRaven'
p378
sg33
(lp379
sg35
(lp380
S'duel'
p381
aS'teamDuel'
p382
asba(i__main__
Map
p383
(dp384
g29
S'JediOutcast'
p385
sg31
S'DeathStar'
p386
sg33
(lp387
sg35
(lp388
S'teamDuel'
p389
asba(i__main__
Map
p390
(dp391
g29
S'JediOutcast'
p392
sg31
S'StarDestroyer'
p393
sg33
(lp394
sg35
(lp395
S'teamDuel'
p396
asba(i__main__
Map
p397
(dp398
g29
S'JediOutcast'
p399
sg31
S'Garrison27D'
p400
sg33
(lp401
sg35
(lp402
S'teamDuel'
p403
aS'cap2'
p404
asbasg31
S'ClimateShip'
p405
sg63
(lp406
(i__main__
Map
p407
(dp408
g29
S'Battlefront2'
p409
sg31
S'TantiveIV'
p410
sg33
(lp411
sg35
(lp412
S'conquest'
p413
asba(i__main__
Map
p414
(dp415
g29
S'Battlefront2'
p416
sg31
S'DeathStar'
p417
sg33
(lp418
sg35
(lp419
S'conquest) '
p420
asba(i__main__
Map
p421
(dp422
g29
S'Battlefront2EA'
p423
sg31
S'DeathStar2'
p424
sg33
(lp425
sg35
(lp426
S'supremacy'
p427
aS'attack'
p428
aS'team'
p429
asbasba(i__main__
Climate
p430
(dp431
g21
(lp432
sg23
(lp433
sg25
(lp434
(i__main__
Map
p435
(dp436
g29
S'JediAcademy'
p437
sg31
S'Factory'
p438
sg33
(lp439
sg35
(lp440
S'cap2'
p441
asba(i__main__
Map
p442
(dp443
g29
S'JediAcademy'
p444
sg31
S'Vjun'
p445
sg33
(lp446
sg35
(lp447
S'teamDuel'
p448
aS'duel'
p449
asba(i__main__
Map
p450
(dp451
g29
S'JediAcademy'
p452
sg31
S'GeneratorRoom'
p453
sg33
(lp454
sg35
(lp455
S'duel'
p456
asba(i__main__
Map
p457
(dp458
g29
S'JediAcademy'
p459
sg31
S'ImperialShaft'
p460
sg33
(lp461
sg35
(lp462
S'duel'
p463
asba(i__main__
Map
p464
(dp465
g29
S'JediAcademy'
p466
sg31
S'ImprialControlRoom'
p467
sg33
(lp468
sg35
(lp469
S'duel'
p470
asba(i__main__
Map
p471
(dp472
g29
S'JediOutcast'
p473
sg31
S'NarshadaaStreets'
p474
sg33
(lp475
sg35
(lp476
S'teamDuel'
p477
asba(i__main__
Map
p478
(dp479
g29
S'JediOutcast'
p480
sg31
S'WarringFactions'
p481
sg33
(lp482
sg35
(lp483
S'teamDuel'
p484
aS'cap2'
p485
asba(i__main__
Map
p486
(dp487
g29
S'JediOutcast'
p488
sg31
S'GarbageFacility'
p489
sg33
(lp490
sg35
(lp491
S'teamDuel'
p492
asba(i__main__
Map
p493
(dp494
g29
S'JediOutcast'
p495
sg31
S'TrialPit'
p496
sg33
(lp497
sg35
(lp498
S'teamDuel'
p499
aS'duel'
p500
asbasg31
S'ClimateCity'
p501
sg63
(lp502
sba(i__main__
Climate
p503
(dp504
g21
(lp505
sg23
(lp506
sg25
(lp507
(i__main__
Map
p508
(dp509
g29
S'JediAcademy'
p510
sg31
S'AbandonedCity'
p511
sg33
(lp512
sg35
(lp513
S'duel'
p514
asba(i__main__
Map
p515
(dp516
g29
S'JediAcademy'
p517
sg31
S'KorribanTombs'
p518
sg33
(lp519
sg35
(lp520
S'teamDuel'
p521
asba(i__main__
Map
p522
(dp523
g29
S'JediOutcast'
p524
sg31
S'CeremonialHall'
p525
sg33
(lp526
sg35
(lp527
S'duel'
p528
asba(i__main__
Map
p529
(dp530
g29
S'JediOutcast'
p531
sg31
S'LightSaberTraining'
p532
sg33
(lp533
sg35
(lp534
S'duel'
p535
asba(i__main__
Map
p536
(dp537
g29
S'JediOutcast'
p538
sg31
S'MassassiTemple'
p539
sg33
(lp540
sg35
(lp541
S'teamDuel'
p542
asba(i__main__
Map
p543
(dp544
g29
S'JediOutcast'
p545
sg31
S'TempleTournament'
p546
sg33
(lp547
sg35
(lp548
S'teamDuel'
p549
aS'cap2'
p550
asbasg31
S'ClimateTemple'
p551
sg63
(lp552
sbasS'planets'
p553
(lp554
(i__main__
Planet
p555
(dp556
S'forceSide'
p557
S'netural'
p558
sS'climate'
p559
S'city'
p560
sg25
(lp561
(i__main__
Map
p562
(dp563
g29
S'Battlefront2'
p564
sg31
S'Coruscant'
p565
sg33
(lp566
sg35
(lp567
S'cap2'
p568
asba(i__main__
Map
p569
(dp570
g29
S'JediAcademy'
p571
sg31
S'Coruscant'
p572
sg33
(lp573
sg35
(lp574
S'cap2'
p575
asbasS'force'
p576
S'medium'
p577
sg31
S'PlanetCoruscant'
p578
sS'support'
p579
S'high'
p580
sS'creditProduction'
p581
S'high'
p582
sg63
(lp583
(i__main__
Map
p584
(dp585
g29
S'Battlefront2'
p586
sg31
S'Coruscant'
p587
sg33
(lp588
sg35
(lp589
S'conquest'
p590
asbasS'owner'
p591
S'empire'
p592
sS'position'
p593
S'(0,0)'
p594
sS'resources'
p595
S'low'
p596
sS'population'
p597
S'high'
p598
sba(i__main__
Planet
p599
(dp600
g557
S'netural'
p601
sg559
S'snow'
p602
sg25
(lp603
(i__main__
Map
p604
(dp605
g29
S'Battlefront2'
p606
sg31
S'Hoth'
p607
sg33
(lp608
sg35
(lp609
S'cap1'
p610
aS'hunt'
p611
aS'xl'
p612
asbasg576
S'low'
p613
sg31
S'PlanetHoth'
p614
sg579
S'medium'
p615
sg581
S'low'
p616
sg63
(lp617
(i__main__
Map
p618
(dp619
g29
S'Battlefront1'
p620
sg31
S'Hoth'
p621
sg33
(lp622
sg35
(lp623
S'conquest'
p624
asba(i__main__
Map
p625
(dp626
g29
S'Battlefront1EA'
p627
sg31
S'TwilightHoth'
p628
sg33
(lp629
sg35
(lp630
S'walker'
p631
asba(i__main__
Map
p632
(dp633
g29
S'Battlefront1EA'
p634
sg31
S'OutpostBetaHoth'
p635
sg33
(lp636
sg35
(lp637
S'walker'
p638
asba(i__main__
Map
p639
(dp640
g29
S'Battlefront2'
p641
sg31
S'Hoth'
p642
sg33
(lp643
sg35
(lp644
S'conquest'
p645
asba(i__main__
Map
p646
(dp647
g29
S'Battlefront2EA'
p648
sg31
S'hoth'
p649
sg33
(lp650
sg35
(lp651
S'supremacy'
p652
aS'defend'
p653
asbasg591
S'empire'
p654
sg593
S'(0,-400)'
p655
sg595
S'low'
p656
sg597
S'low'
p657
sba(i__main__
Planet
p658
(dp659
g557
S'netural'
p660
sg559
S'snow'
p661
sg25
(lp662
sg576
S'High'
p663
sg31
S'PlanetRhenVar'
p664
sg579
S'medium'
p665
sg581
S'low'
p666
sg63
(lp667
sg591
S'none'
p668
sg593
S'(400,-100)'
p669
sg595
S'low'
p670
sg597
S'low'
p671
sba(i__main__
Planet
p672
(dp673
g557
S'netural'
p674
sg559
S'lava'
p675
sg25
(lp676
sg576
S'medium'
p677
sg31
S'PlanetSullust'
p678
sg579
S'medium'
p679
sg581
S'medium'
p680
sg63
(lp681
sg591
S'empire'
p682
sg593
S'(100,-350)'
p683
sg595
S'medium'
p684
sg597
S'medium'
p685
sba(i__main__
Planet
p686
(dp687
g557
S'dark'
p688
sg559
S'lava'
p689
sg25
(lp690
(i__main__
Map
p691
(dp692
g29
S'Battlefront2'
p693
sg31
S'Mustafar'
p694
sg33
(lp695
sg35
(lp696
S'cap2'
p697
asbasg576
S'high'
p698
sg31
S'PlanetMustafar'
p699
sg579
S'high'
p700
sg581
S'medium'
p701
sg63
(lp702
(i__main__
Map
p703
(dp704
g29
S'Battlefront2'
p705
sg31
S'Mustafar'
p706
sg33
(lp707
sg35
(lp708
S'conquest'
p709
asbasg591
S'empire'
p710
sg593
S'(50,-450)'
p711
sg595
S'high'
p712
sg597
S'low'
p713
sba(i__main__
Planet
p714
(dp715
g557
S'light'
p716
sg559
S'forest'
p717
sg25
(lp718
(i__main__
Map
p719
(dp720
g29
S'Battlefront2'
p721
sg31
S'Endor'
p722
sg33
(lp723
sg35
(lp724
S'cap1'
p725
aS'hunt'
p726
asbasg576
S'medium'
p727
sg31
S'PlanetEndor'
p728
sg579
S'high'
p729
sg581
S'low'
p730
sg63
(lp731
(i__main__
Map
p732
(dp733
g29
S'Battlefront1'
p734
sg31
S'EndorBunker'
p735
sg33
(lp736
sg35
(lp737
S'conquest'
p738
asba(i__main__
Map
p739
(dp740
g29
S'Battlefront2'
p741
sg31
S'Endor'
p742
sg33
(lp743
sg35
(lp744
S'conquest'
p745
asba(i__main__
Map
p746
(dp747
g29
S'Battlefront2EA'
p748
sg31
S'Endor'
p749
sg33
(lp750
sg35
(lp751
S'attack'
p752
asbasg591
S'newRepublic'
p753
sg593
S'(-200,-300)'
p754
sg595
S'low'
p755
sg597
S'medium'
p756
sba(i__main__
Planet
p757
(dp758
g557
S'netural'
p759
sg559
S'desert'
p760
sg25
(lp761
(i__main__
Map
p762
(dp763
g29
S'Battlefront2'
p764
sg31
S'JabbasPalace'
p765
sg33
(lp766
sg35
(lp767
S'cap1'
p768
asba(i__main__
Map
p769
(dp770
g29
S'Battlefront2'
p771
sg31
S'MosEisely'
p772
sg33
(lp773
sg35
(lp774
S'hunt'
p775
aS'cap2'
p776
asba(i__main__
Map
p777
(dp778
g29
S'Battlefront2EA'
p779
sg31
S'JabasPalace'
p780
sg33
(lp781
sg35
(lp782
S'onslaught'
p783
asba(i__main__
Map
p784
(dp785
g29
S'JediAcademy'
p786
sg31
S'TatooineCity'
p787
sg33
(lp788
sg35
(lp789
S'teamDuel'
p790
asba(i__main__
Map
p791
(dp792
g29
S'JediAcademy'
p793
sg31
S'RancorPit'
p794
sg33
(lp795
sg35
(lp796
S'duel'
p797
asbasg576
S'low'
p798
sg31
S'PlanetTatooine'
p799
sg579
S'medium'
p800
sg581
S'medium'
p801
sg63
(lp802
(i__main__
Map
p803
(dp804
g29
S'Battlefront1'
p805
sg31
S'JabbasPalace'
p806
sg33
(lp807
sg35
(lp808
S'conquest'
p809
asba(i__main__
Map
p810
(dp811
g29
S'Battlefront1'
p812
sg31
S'MosEisely'
p813
sg33
(lp814
sg35
(lp815
S'conquest'
p816
asba(i__main__
Map
p817
(dp818
g29
S'Battlefront1'
p819
sg31
S'TatooineDuneSea'
p820
sg33
(lp821
sg35
(lp822
S'conquest'
p823
asba(i__main__
Map
p824
(dp825
g29
S'Battlefront2'
p826
sg31
S'MosEisely'
p827
sg33
(lp828
sg35
(lp829
S'conquest'
p830
asba(i__main__
Map
p831
(dp832
g29
S'Battlefront2'
p833
sg31
S'JabbasPalace'
p834
sg33
(lp835
sg35
(lp836
S'conquest'
p837
asba(i__main__
Map
p838
(dp839
g29
S'Battlefront2EA'
p840
sg31
S'JabasPalace'
p841
sg33
(lp842
sg35
(lp843
S'team'
p844
asbasg591
S'newRepublic'
p845
sg593
S'(300,-300)'
p846
sg595
S'low'
p847
sg597
S'medium'
p848
sba(i__main__
Planet
p849
(dp850
g557
S'netural'
p851
sg559
S'forest'
p852
sg25
(lp853
(i__main__
Map
p854
(dp855
g29
S'Battlefront2'
p856
sg31
S'kashyyyk'
p857
sg33
(lp858
sg35
(lp859
S'cap2'
p860
aS'xl'
p861
asbasg576
S'low'
p862
sg31
S'PlanetKashyyyk'
p863
sg579
S'medium'
p864
sg581
S'medium'
p865
sg63
(lp866
(i__main__
Map
p867
(dp868
g29
S'Battlefront1'
p869
sg31
S'KashyyykDocks'
p870
sg33
(lp871
sg35
(lp872
S'conquest'
p873
asba(i__main__
Map
p874
(dp875
g29
S'Battlefront1'
p876
sg31
S'KashyyykIslands'
p877
sg33
(lp878
sg35
(lp879
S'conquest'
p880
asba(i__main__
Map
p881
(dp882
g29
S'Battlefront2'
p883
sg31
S'Kashyyyk'
p884
sg33
(lp885
sg35
(lp886
S'conquest'
p887
asbasg591
S'none'
p888
sg593
S'(200,50)'
p889
sg595
S'medium'
p890
sg597
S'medium'
p891
sba(i__main__
Planet
p892
(dp893
g557
S'netural'
p894
sg559
S'city'
p895
sg25
(lp896
(i__main__
Map
p897
(dp898
g29
S'JediAcademy'
p899
sg31
S'Bespin'
p900
sg33
(lp901
sg35
(lp902
S'duel'
p903
asba(i__main__
Map
p904
(dp905
g29
S'JediOutcast'
p906
sg31
S'BespinStreets'
p907
sg33
(lp908
sg35
(lp909
S'teamduel'
p910
asba(i__main__
Map
p911
(dp912
g29
S'JediOutcast'
p913
sg31
S'BespinExaustShaft'
p914
sg33
(lp915
sg35
(lp916
S'teamDuel'
p917
aS'cap2'
p918
asba(i__main__
Map
p919
(dp920
g29
S'JediOutcast'
p921
sg31
S'CarbonChamber'
p922
sg33
(lp923
sg35
(lp924
S'duel'
p925
asba(i__main__
Map
p926
(dp927
g29
S'JediOutcast'
p928
sg31
S'BespinAirVanes'
p929
sg33
(lp930
sg35
(lp931
S'duel'
p932
asba(i__main__
Map
p933
(dp934
g29
S'JediOutcast'
p935
sg31
S'BattleGroundJedi'
p936
sg33
(lp937
sg35
(lp938
S'duel'
p939
asbasg576
S'low'
p940
sg31
S'PlanetBespin'
p941
sg579
S'medium'
p942
sg581
S'medium'
p943
sg63
(lp944
(i__main__
Map
p945
(dp946
g29
S'Battlefront1'
p947
sg31
S'BespinPlatfroms'
p948
sg33
(lp949
sg35
(lp950
S'conquest'
p951
asba(i__main__
Map
p952
(dp953
g29
S'Battlefront1'
p954
sg31
S'BespinCloudCity'
p955
sg33
(lp956
sg35
(lp957
S'conquest'
p958
asba(i__main__
Map
p959
(dp960
g29
S'Battlefront2EA'
p961
sg31
S'Bespin'
p962
sg33
(lp963
sg35
(lp964
S'team'
p965
asbasg591
S'none'
p966
sg593
S'(50,-350)'
p967
sg595
S'high'
p968
sg597
S'high'
p969
sba(i__main__
Planet
p970
(dp971
g557
S'netural'
p972
sg559
S'plains, temple'
p973
sg25
(lp974
(i__main__
Map
p975
(dp976
g29
S'Battlefront2'
p977
sg31
S'Naboo'
p978
sg33
(lp979
sg35
(lp980
S'cap2'
p981
aS'hunt'
p982
asbasg576
S'low'
p983
sg31
S'PlanetNaboo'
p984
sg579
S'medium'
p985
sg581
S'medium'
p986
sg63
(lp987
(i__main__
Map
p988
(dp989
g29
S'Battlefront1'
p990
sg31
S'NabooPlains'
p991
sg33
(lp992
sg35
(lp993
S'conquest'
p994
asba(i__main__
Map
p995
(dp996
g29
S'Battlefront1'
p997
sg31
S'NabooTheed'
p998
sg33
(lp999
sg35
(lp1000
S'conquest'
p1001
asba(i__main__
Map
p1002
(dp1003
g29
S'Battlefront2'
p1004
sg31
S'Naboo'
p1005
sg33
(lp1006
sg35
(lp1007
S'conquest'
p1008
asbasg591
S'none'
p1009
sg593
S'(200,-300)'
p1010
sg595
S'medium'
p1011
sg597
S'medium'
p1012
sba(i__main__
Planet
p1013
(dp1014
g557
S'netural'
p1015
sg559
S'forest, temple'
p1016
sg25
(lp1017
(i__main__
Map
p1018
(dp1019
g29
S'Battlefront2'
p1020
sg31
S'Yavin4'
p1021
sg33
(lp1022
sg35
(lp1023
S'cap1'
p1024
asba(i__main__
Map
p1025
(dp1026
g29
S'Battlefront2EA'
p1027
sg31
S'Yavin4Temple'
p1028
sg33
(lp1029
sg35
(lp1030
S'onslaught'
p1031
asba(i__main__
Map
p1032
(dp1033
g29
S'JediAcademy'
p1034
sg31
S'Yavin'
p1035
sg33
(lp1036
sg35
(lp1037
S'cap2'
p1038
aS'duel'
p1039
asbasg576
S'high'
p1040
sg31
S'PlanetYavin4'
p1041
sg579
S'medium'
p1042
sg581
S'low'
p1043
sg63
(lp1044
(i__main__
Map
p1045
(dp1046
g29
S'Battlefront1'
p1047
sg31
S'Yavin4Temple'
p1048
sg33
(lp1049
sg35
(lp1050
S'conquest'
p1051
asba(i__main__
Map
p1052
(dp1053
g29
S'Battlefront1'
p1054
sg31
S'Yavin4Arena'
p1055
sg33
(lp1056
sg35
(lp1057
S'conquest'
p1058
asba(i__main__
Map
p1059
(dp1060
g29
S'Battlefront2'
p1061
sg31
S'Yavin4'
p1062
sg33
(lp1063
sg35
(lp1064
S'conquest'
p1065
asba(i__main__
Map
p1066
(dp1067
g29
S'Battlefront2EA'
p1068
sg31
S'Yavin4'
p1069
sg33
(lp1070
sg35
(lp1071
S'supremacy'
p1072
aS'team'
p1073
aS'defend'
p1074
asbasg591
S'newRepublic'
p1075
sg593
S'(200,200)'
p1076
sg595
S'low'
p1077
sg597
S'low'
p1078
sba(i__main__
Planet
p1079
(dp1080
g557
S'light'
p1081
sg559
S'forest'
p1082
sg25
(lp1083
(i__main__
Map
p1084
(dp1085
g29
S'Battlefront2'
p1086
sg31
S'Dagobah'
p1087
sg33
(lp1088
sg35
(lp1089
S'cap1'
p1090
asbasg576
S'high'
p1091
sg31
S'PlanetDagobah'
p1092
sg579
S'high'
p1093
sg581
S'low'
p1094
sg63
(lp1095
(i__main__
Map
p1096
(dp1097
g29
S'Battlefront2'
p1098
sg31
S'Dagobah'
p1099
sg33
(lp1100
sg35
(lp1101
S'conquest'
p1102
asbasg591
S'newRepublic'
p1103
sg593
S'(150,-500)'
p1104
sg595
S'low'
p1105
sg597
S'low'
p1106
sba(i__main__
Planet
p1107
(dp1108
g557
S'neutral'
p1109
sg559
S'flowers'
p1110
sg25
(lp1111
(i__main__
Map
p1112
(dp1113
g29
S'Battlefront2'
p1114
sg31
S'Felucia'
p1115
sg33
(lp1116
sg35
(lp1117
S'cap1'
p1118
asbasg576
S'low'
p1119
sg31
S'PlanetFelucia'
p1120
sg579
S'medium'
p1121
sg581
S'medium'
p1122
sg63
(lp1123
(i__main__
Map
p1124
(dp1125
g29
S'Battlefront2'
p1126
sg31
S'Felucia'
p1127
sg33
(lp1128
sg35
(lp1129
S'conquest'
p1130
asbasg591
S'none'
p1131
sg593
S'(300,200)'
p1132
sg595
S'medium'
p1133
sg597
S'medium'
p1134
sba(i__main__
Planet
p1135
(dp1136
g557
S'neutral'
p1137
sg559
S'ocean'
p1138
sg25
(lp1139
sg576
S'low'
p1140
sg31
S'PlanetKamino'
p1141
sg579
S'medium'
p1142
sg581
S'medium'
p1143
sg63
(lp1144
(i__main__
Map
p1145
(dp1146
g29
S'Battlefront2'
p1147
sg31
S'Kamino'
p1148
sg33
(lp1149
sg35
(lp1150
S'conquest'
p1151
asbasg591
S'none'
p1152
sg593
S'(500,-250)'
p1153
sg595
S'medium'
p1154
sg597
S'medium'
p1155
sba(i__main__
Planet
p1156
(dp1157
g557
S'neutral'
p1158
sg559
S'desert'
p1159
sg25
(lp1160
sg576
S'low'
p1161
sg31
S'PlanetScarif'
p1162
sg579
S'medium'
p1163
sg581
S'medium'
p1164
sg63
(lp1165
(i__main__
Map
p1166
(dp1167
g29
S'Battlefront2EA'
p1168
sg31
S'Scarif'
p1169
sg33
(lp1170
sg35
(lp1171
S'supremacy'
p1172
aS'attack'
p1173
asbasg591
S'empire'
p1174
sg593
S'(350,-200)'
p1175
sg595
S'medium'
p1176
sg597
S'medium'
p1177
sba(i__main__
Planet
p1178
(dp1179
g557
S'neutral'
p1180
sg559
S'city, ship'
p1181
sg25
(lp1182
(i__main__
Map
p1183
(dp1184
g29
S'Battlefront2EA'
p1185
sg31
S'Kessel'
p1186
sg33
(lp1187
sg35
(lp1188
S'onslaught) '
p1189
asbasg576
S'low'
p1190
sg31
S'PlanetKessel'
p1191
sg579
S'medium'
p1192
sg581
S'high'
p1193
sg63
(lp1194
(i__main__
Map
p1195
(dp1196
g29
S'Battlefront2EA'
p1197
sg31
S'Kessel'
p1198
sg33
(lp1199
sg35
(lp1200
S'team) '
p1201
asbasg591
S'none'
p1202
sg593
S'(300,0)'
p1203
sg595
S'high'
p1204
sg597
S'medium'
p1205
sba(i__main__
Planet
p1206
(dp1207
g557
S'neutral'
p1208
sg559
S'ship'
p1209
sg25
(lp1210
(i__main__
Map
p1211
(dp1212
g29
S'Battlefront2'
p1213
sg31
S'PolisMassa'
p1214
sg33
(lp1215
sg35
(lp1216
S'cap2'
p1217
asbasg576
S'low'
p1218
sg31
S'PlanetPolisMassa'
p1219
sg579
S'medium'
p1220
sg581
S'medium'
p1221
sg63
(lp1222
(i__main__
Map
p1223
(dp1224
g29
S'Battlefront2'
p1225
sg31
S'PolisMassa'
p1226
sg33
(lp1227
sg35
(lp1228
S'conquest'
p1229
asbasg591
S'newRepublic'
p1230
sg593
S'(100,-500)'
p1231
sg595
S'high'
p1232
sg597
S'low'
p1233
sba(i__main__
Planet
p1234
(dp1235
g557
S'neutral'
p1236
sg559
S'lava'
p1237
sg25
(lp1238
(i__main__
Map
p1239
(dp1240
g29
S'Battlefront2'
p1241
sg31
S'Mygeeto'
p1242
sg33
(lp1243
sg35
(lp1244
S'cap2'
p1245
asbasg576
S'low'
p1246
sg31
S'PlanetMygeeto'
p1247
sg579
S'medium'
p1248
sg581
S'medium'
p1249
sg63
(lp1250
(i__main__
Map
p1251
(dp1252
g29
S'Battlefront2'
p1253
sg31
S'Mygeeto'
p1254
sg33
(lp1255
sg35
(lp1256
S'conquest'
p1257
asbasg591
S'none'
p1258
sg593
S'(0,300)'
p1259
sg595
S'medium'
p1260
sg597
S'medium'
p1261
sbasS'costInfiltrationTeam'
p1262
S'500c'
p1263
sS'sides'
p1264
(lp1265
S'newRepublic'
p1266
aS'empire'
p1267
asS'size'
p1268
I600
sb.