(ibackend
PlayingTable
p0
(dp1
S'whoseTurn'
p2
S'empire'
p3
sS'galaxy'
p4
(ibackend
Galaxy
p5
(dp6
S'costUnitTier'
p7
S'500r'
p8
sS'costNewHero'
p9
S'2000r'
p10
sS'costFleet'
p11
S'1000c'
p12
sS'costBattalion'
p13
S'1000c'
p14
sS'costUpgradeScanner'
p15
S'500c'
p16
sS'players'
p17
(lp18
(ibackend
Player
p19
(dp20
S'fleets'
p21
(lp22
(ibackend
Fleet
p23
(dp24
S'xPos'
p25
I20
sS'numInfiltration'
p26
I0
sS'idVal'
p27
S'Fleetf3b3f7ff-1255-403c-98c2-49c8f64a114d'
p28
sS'numHeros'
p29
I0
sS'moved'
p30
I00
sS'yPos'
p31
I12
sS'numSquadrons'
p32
I0
sS'moveRange'
p33
I5
sS'numBattalions'
p34
I1
sS'side'
p35
S'newRepublic'
p36
sba(ibackend
Fleet
p37
(dp38
g25
I12
sg26
I0
sg27
S'Fleetd0ff5f6d-5644-4c64-9451-805e78de26f7'
p39
sg29
I0
sg30
I00
sg31
I18
sg32
I0
sg33
I5
sg34
I1
sg35
g36
sba(ibackend
Fleet
p40
(dp41
g25
I19
sg26
I0
sg27
S'Fleete64ce516-f1e6-401f-b9e9-094137235a0f'
p42
sg29
I0
sg30
I00
sg31
I14
sg32
I0
sg33
I5
sg34
I1
sg35
g36
sba(ibackend
Fleet
p43
(dp44
g25
I17
sg26
I0
sg27
S'Fleet5732a571-3f75-4b9c-8864-6f14c7f2407c'
p45
sg29
I0
sg30
I00
sg31
I18
sg32
I1
sg33
I5
sg34
I0
sg35
g36
sba(ibackend
Fleet
p46
(dp47
g25
I18
sg26
I0
sg27
S'Fleet74afca21-834f-4a6e-9c3a-d58eae888215'
p48
sg29
I0
sg30
I00
sg31
I8
sg32
I0
sg33
I5
sg34
I1
sg35
g36
sba(ibackend
Fleet
p49
(dp50
g25
I18
sg26
I0
sg27
S'Fleet27dc9322-8627-49d5-9224-a7b64501ee50'
p51
sg29
I0
sg30
I00
sg31
I16
sg32
I0
sg33
I5
sg34
I1
sg35
g36
sba(ibackend
Fleet
p52
(dp53
g25
I17
sg26
I0
sg27
S'Fleet98cc03c4-e9e8-4075-a938-047c02397106'
p54
sg29
I0
sg30
I00
sg31
I22
sg32
I0
sg33
I5
sg34
I1
sg35
g36
sba(ibackend
Fleet
p55
(dp56
g25
I12
sg26
I0
sg27
S'Fleet4ded78da-73aa-41ca-8266-3360908adea1'
p57
sg29
I0
sg30
I01
sg31
I12
sg32
I1
sg33
I5
sg34
I1
sg35
g36
sba(ibackend
Fleet
p58
(dp59
g25
I18
sg26
I0
sg27
S'Fleetb5f680f0-2513-4ca2-b3a9-509a43cda08e'
p60
sg29
I0
sg30
I00
sg31
I18
sg32
I0
sg33
I5
sg34
I1
sg35
g36
sba(ibackend
Fleet
p61
(dp62
g25
I16
sg26
I0
sg27
S'Fleetde59d428-b169-473a-b493-93e3ce4efe43'
p63
sg29
I0
sg30
I00
sg31
I19
sg32
I0
sg33
I5
sg34
I1
sg35
g36
sba(ibackend
Fleet
p64
(dp65
g25
I14
sg26
I0
sg27
S'Fleet2f57e29c-3b25-41db-9c1c-5fd7777b404b'
p66
sg29
I0
sg30
I00
sg31
I20
sg32
I0
sg33
I5
sg34
I1
sg35
g36
sbasS'isHuman'
p67
I01
sg35
g36
sS'resources'
p68
I1000
sS'credits'
p69
I6250
sba(ibackend
Player
p70
(dp71
g21
(lp72
(ibackend
Fleet
p73
(dp74
g25
I16
sg26
I0
sg27
S'Fleetbc470b2d-75aa-47fb-a35e-883c15beaedc'
p75
sg29
I0
sg30
I00
sg31
I19
sg32
I1
sg33
I5
sg34
I0
sg35
g3
sba(ibackend
Fleet
p76
(dp77
g25
I6
sg26
I0
sg27
S'Fleet9b03dee8-8c4c-468e-91bd-32217e35bbd5'
p78
sg29
I0
sg30
I00
sg31
I12
sg32
I0
sg33
I5
sg34
I1
sg35
g3
sba(ibackend
Fleet
p79
(dp80
g25
I12
sg26
I0
sg27
S'Fleet4502333d-8d9d-46ff-890d-edb88d915358'
p81
sg29
I0
sg30
I01
sg31
I18
sg32
I1
sg33
I5
sg34
I0
sg35
g3
sba(ibackend
Fleet
p82
(dp83
g25
I11
sg26
I0
sg27
S'Fleet276e251b-402c-48df-b254-f83243afdeed'
p84
sg29
I0
sg30
I01
sg31
I16
sg32
I0
sg33
I5
sg34
I1
sg35
g3
sbasg67
I00
sg35
g3
sg68
I1000
sg69
I500
sbasS'galaxyMap'
p85
(lp86
(lp87
(lp88
a(lp89
a(lp90
a(lp91
a(lp92
a(lp93
a(lp94
a(lp95
a(lp96
a(lp97
a(lp98
a(lp99
a(lp100
a(lp101
a(lp102
a(lp103
a(lp104
a(lp105
a(lp106
a(lp107
a(lp108
a(lp109
a(lp110
a(lp111
aa(lp112
(lp113
a(lp114
a(lp115
a(lp116
a(lp117
a(lp118
a(lp119
a(lp120
a(lp121
a(lp122
a(lp123
a(lp124
a(lp125
a(lp126
a(lp127
a(lp128
a(lp129
a(lp130
a(lp131
a(lp132
a(lp133
a(lp134
a(lp135
a(lp136
aa(lp137
(lp138
a(lp139
a(lp140
a(lp141
a(lp142
a(lp143
a(lp144
a(lp145
a(lp146
a(lp147
a(lp148
a(lp149
a(lp150
a(lp151
a(lp152
a(lp153
a(lp154
a(lp155
a(lp156
a(lp157
a(lp158
a(lp159
a(lp160
a(lp161
aa(lp162
(lp163
a(lp164
a(lp165
a(lp166
a(lp167
a(lp168
a(lp169
a(lp170
a(lp171
a(lp172
a(lp173
a(lp174
a(lp175
a(lp176
a(lp177
a(lp178
a(lp179
a(lp180
a(lp181
a(lp182
a(lp183
a(lp184
a(lp185
a(lp186
aa(lp187
(lp188
a(lp189
a(lp190
a(lp191
a(lp192
a(lp193
a(lp194
a(lp195
a(lp196
a(lp197
a(lp198
a(lp199
a(lp200
a(lp201
a(lp202
a(lp203
a(lp204
a(lp205
a(lp206
a(lp207
a(lp208
a(lp209
a(lp210
a(lp211
aa(lp212
(lp213
a(lp214
a(lp215
a(lp216
a(lp217
a(lp218
a(lp219
a(lp220
a(lp221
a(lp222
a(lp223
a(lp224
a(lp225
a(lp226
a(lp227
a(lp228
a(lp229
a(lp230
a(lp231
a(lp232
a(lp233
a(lp234
a(lp235
a(lp236
aa(lp237
(lp238
a(lp239
a(lp240
a(lp241
a(lp242
a(lp243
a(lp244
a(lp245
a(lp246
a(lp247
a(lp248
a(lp249
a(lp250
S'PlanetMygeeto'
p251
ag78
aa(lp252
a(lp253
a(lp254
a(lp255
a(lp256
a(lp257
a(lp258
a(lp259
a(lp260
a(lp261
a(lp262
aa(lp263
(lp264
a(lp265
a(lp266
a(lp267
a(lp268
a(lp269
a(lp270
a(lp271
a(lp272
a(lp273
a(lp274
a(lp275
a(lp276
a(lp277
a(lp278
a(lp279
a(lp280
a(lp281
a(lp282
a(lp283
a(lp284
a(lp285
a(lp286
a(lp287
aa(lp288
(lp289
a(lp290
a(lp291
a(lp292
a(lp293
a(lp294
a(lp295
a(lp296
a(lp297
a(lp298
a(lp299
a(lp300
a(lp301
a(lp302
a(lp303
a(lp304
a(lp305
S'PlanetYavin4'
p306
aa(lp307
a(lp308
S'PlanetFelucia'
p309
aa(lp310
a(lp311
a(lp312
a(lp313
a(lp314
aa(lp315
(lp316
a(lp317
a(lp318
a(lp319
a(lp320
a(lp321
a(lp322
a(lp323
a(lp324
a(lp325
a(lp326
a(lp327
a(lp328
a(lp329
a(lp330
a(lp331
a(lp332
a(lp333
a(lp334
a(lp335
a(lp336
a(lp337
a(lp338
a(lp339
aa(lp340
(lp341
a(lp342
a(lp343
a(lp344
a(lp345
a(lp346
a(lp347
a(lp348
a(lp349
a(lp350
a(lp351
a(lp352
a(lp353
a(lp354
a(lp355
a(lp356
a(lp357
a(lp358
a(lp359
a(lp360
a(lp361
a(lp362
a(lp363
a(lp364
aa(lp365
(lp366
a(lp367
a(lp368
a(lp369
a(lp370
a(lp371
a(lp372
a(lp373
a(lp374
a(lp375
a(lp376
a(lp377
a(lp378
a(lp379
a(lp380
a(lp381
a(lp382
S'PlanetKashyyyk'
p383
ag84
aa(lp384
a(lp385
a(lp386
a(lp387
a(lp388
a(lp389
a(lp390
aa(lp391
(lp392
a(lp393
a(lp394
a(lp395
a(lp396
a(lp397
a(lp398
a(lp399
a(lp400
a(lp401
a(lp402
a(lp403
a(lp404
S'PlanetCoruscant'
p405
ag57
aa(lp406
a(lp407
a(lp408
a(lp409
a(lp410
a(lp411
S'PlanetKessel'
p412
ag39
ag81
aa(lp413
a(lp414
a(lp415
a(lp416
a(lp417
aa(lp418
(lp419
a(lp420
a(lp421
a(lp422
a(lp423
a(lp424
a(lp425
a(lp426
a(lp427
a(lp428
a(lp429
a(lp430
a(lp431
a(lp432
a(lp433
a(lp434
a(lp435
a(lp436
a(lp437
a(lp438
a(lp439
a(lp440
a(lp441
a(lp442
aa(lp443
(lp444
a(lp445
a(lp446
a(lp447
a(lp448
a(lp449
a(lp450
a(lp451
a(lp452
a(lp453
a(lp454
a(lp455
a(lp456
a(lp457
a(lp458
a(lp459
a(lp460
a(lp461
a(lp462
a(lp463
a(lp464
S'PlanetRhenVar'
p465
ag66
aa(lp466
a(lp467
a(lp468
aa(lp469
(lp470
a(lp471
a(lp472
a(lp473
a(lp474
a(lp475
a(lp476
a(lp477
a(lp478
a(lp479
a(lp480
a(lp481
a(lp482
a(lp483
a(lp484
a(lp485
a(lp486
a(lp487
a(lp488
a(lp489
a(lp490
a(lp491
a(lp492
a(lp493
aa(lp494
(lp495
a(lp496
a(lp497
a(lp498
a(lp499
a(lp500
a(lp501
a(lp502
a(lp503
a(lp504
a(lp505
a(lp506
a(lp507
a(lp508
a(lp509
a(lp510
a(lp511
a(lp512
a(lp513
a(lp514
S'PlanetScarif'
p515
ag63
ag75
aa(lp516
a(lp517
a(lp518
a(lp519
aa(lp520
(lp521
a(lp522
a(lp523
a(lp524
a(lp525
a(lp526
a(lp527
a(lp528
a(lp529
a(lp530
a(lp531
a(lp532
a(lp533
a(lp534
a(lp535
a(lp536
a(lp537
a(lp538
a(lp539
g45
aa(lp540
a(lp541
a(lp542
a(lp543
S'PlanetKamino'
p544
ag54
aa(lp545
aa(lp546
(lp547
a(lp548
a(lp549
a(lp550
a(lp551
a(lp552
a(lp553
a(lp554
a(lp555
S'PlanetEndor'
p556
ag48
aa(lp557
a(lp558
a(lp559
a(lp560
a(lp561
a(lp562
a(lp563
a(lp564
S'PlanetNaboo'
p565
ag51
aa(lp566
a(lp567
S'PlanetTatooine'
p568
ag60
aa(lp569
a(lp570
a(lp571
a(lp572
a(lp573
aa(lp574
(lp575
a(lp576
a(lp577
a(lp578
a(lp579
a(lp580
a(lp581
a(lp582
a(lp583
a(lp584
a(lp585
a(lp586
a(lp587
a(lp588
S'PlanetBespin'
p589
aa(lp590
S'PlanetSullust'
p591
ag42
aa(lp592
a(lp593
a(lp594
a(lp595
a(lp596
a(lp597
a(lp598
a(lp599
a(lp600
aa(lp601
(lp602
a(lp603
a(lp604
a(lp605
a(lp606
a(lp607
a(lp608
a(lp609
a(lp610
a(lp611
a(lp612
a(lp613
a(lp614
S'PlanetHoth'
p615
ag28
aa(lp616
a(lp617
a(lp618
a(lp619
a(lp620
a(lp621
a(lp622
a(lp623
a(lp624
a(lp625
a(lp626
aa(lp627
(lp628
a(lp629
a(lp630
a(lp631
a(lp632
a(lp633
a(lp634
a(lp635
a(lp636
a(lp637
a(lp638
a(lp639
a(lp640
a(lp641
S'PlanetMustafar'
p642
aa(lp643
a(lp644
a(lp645
a(lp646
a(lp647
a(lp648
a(lp649
a(lp650
a(lp651
a(lp652
aa(lp653
(lp654
a(lp655
a(lp656
a(lp657
a(lp658
a(lp659
a(lp660
a(lp661
a(lp662
a(lp663
a(lp664
a(lp665
a(lp666
a(lp667
a(lp668
S'PlanetPolisMassa'
p669
aa(lp670
S'PlanetDagobah'
p671
aa(lp672
a(lp673
a(lp674
a(lp675
a(lp676
a(lp677
a(lp678
a(lp679
aa(lp680
(lp681
a(lp682
a(lp683
a(lp684
a(lp685
a(lp686
a(lp687
a(lp688
a(lp689
a(lp690
a(lp691
a(lp692
a(lp693
a(lp694
a(lp695
a(lp696
a(lp697
a(lp698
a(lp699
a(lp700
a(lp701
a(lp702
a(lp703
a(lp704
aasS'climates'
p705
(lp706
(ibackend
Climate
p707
(dp708
S'mapsSpace'
p709
(lp710
sS'mapsSpaceInfiltrate'
p711
(lp712
sS'mapsInfiltrate'
p713
(lp714
(lp715
S'Hoth'
p716
a(lp717
S'heroBattle'
p718
aS'survival'
p719
aS'battle'
p720
aaS'Battlefront1EA'
p721
aa(lp722
S'IceCaves'
p723
a(lp724
S'survival'
p725
aaS'Battlefront1EA'
p726
aa(lp727
S'Hoth'
p728
a(lp729
S'onslaught'
p730
aaS'Battlefront2EA'
p731
aa(lp732
S'Hoth'
p733
a(lp734
S'cap2'
p735
aS'duel'
p736
aaS'JediAcademy'
p737
aasS'name'
p738
S'ClimateSnow'
p739
sS'mapsLand'
p740
(lp741
(lp742
S'RhenVarHarbor'
p743
a(lp744
S'conquest'
p745
aaS'Battlefront1'
p746
aa(lp747
S'RhenVarCitadel'
p748
a(lp749
S'conquest'
p750
aaS'Battlefront1'
p751
aa(lp752
S'Hoth'
p753
a(lp754
S'supremacy'
p755
aS'team) '
p756
aaS'Battlefront2EA'
p757
aasba(ibackend
Climate
p758
(dp759
g709
(lp760
sg711
(lp761
sg713
(lp762
(lp763
S'Sullust'
p764
a(lp765
S'survival'
p766
aS'heroBattle'
p767
aS'battle'
p768
aaS'Battlefront1EA'
p769
aa(lp770
S'Taspir'
p771
a(lp772
S'duel'
p773
aS'teamDuel'
p774
aaS'JediAcademy'
p775
aasg738
S'ClimateLava'
p776
sg740
(lp777
(lp778
S'SorosuubComplex'
p779
a(lp780
S'walker'
p781
aaS'Battlefront1EA'
p782
aasba(ibackend
Climate
p783
(dp784
g709
(lp785
sg711
(lp786
sg713
(lp787
(lp788
S'Tatooine'
p789
a(lp790
S'survival'
p791
aS'heroBattle'
p792
aS'battle'
p793
aaS'Battlefront1EA'
p794
aa(lp795
S'RebelDepot'
p796
a(lp797
S'survival'
p798
aaS'Battlefront1EA'
p799
aa(lp800
S'MosEisely'
p801
a(lp802
S'onslaught'
p803
aaS'Battlefront2EA'
p804
aasg738
S'ClimateDesert'
p805
sg740
(lp806
(lp807
S'JundlandWastes'
p808
a(lp809
S'walker'
p810
aaS'Battlefront1EA'
p811
aa(lp812
S'GraveyardOfGiants'
p813
a(lp814
S'walker'
p815
aaS'Battlefront1EA'
p816
aa(lp817
S'MosEisley'
p818
a(lp819
S'supremacy'
p820
aS'defend'
p821
aS'team'
p822
aaS'Battlefront2EA'
p823
aasba(ibackend
Climate
p824
(dp825
g709
(lp826
sg711
(lp827
sg713
(lp828
(lp829
S'Endor'
p830
a(lp831
S'survival'
p832
aS'heroBattle'
p833
aS'battle'
p834
aaS'Battlefront1EA'
p835
aa(lp836
S'Endor'
p837
a(lp838
S'onslaught'
p839
aaS'Battlefront2EA'
p840
aasg738
S'ClimateForest'
p841
sg740
(lp842
(lp843
S'EndorMoon'
p844
a(lp845
S'walker'
p846
aaS'Battlefront1EA'
p847
aa(lp848
S'SurvivorsOfEndor'
p849
a(lp850
S'walker'
p851
aaS'Battlefront1EA'
p852
aa(lp853
S'Endor'
p854
a(lp855
S'team'
p856
aaS'Battlefront2EA'
p857
aasba(ibackend
Climate
p858
(dp859
g709
(lp860
sg711
(lp861
sg713
(lp862
sg738
S'Mapsinfiltrate: (Kamino, cap1)'
p863
sg740
(lp864
sba(ibackend
Climate
p865
(dp866
g709
(lp867
(lp868
S'SpaceHoth'
p869
a(lp870
S'assault'
p871
aaS'Battlefront2'
p872
aa(lp873
S'SpaceYavin'
p874
a(lp875
S'assault'
p876
aaS'Battlefront2'
p877
aa(lp878
S'SpaceTatooine'
p879
a(lp880
S'assault'
p881
aaS'Battlefront2'
p882
aa(lp883
S'Endor'
p884
a(lp885
S'assault'
p886
aaS'Battlefront2EA'
p887
aa(lp888
S'FondorShipyard'
p889
a(lp890
S'assault'
p891
aaS'Battlefront2EA'
p892
aa(lp893
S'Esseles'
p894
a(lp895
S'assault'
p896
aaS'Squadrons'
p897
aa(lp898
S'FostarHaven'
p899
a(lp900
S'assault'
p901
aaS'Squadrons'
p902
aa(lp903
S'Galitan'
p904
a(lp905
S'assault'
p906
aaS'Squadrons'
p907
aa(lp908
S'NadiriDockyards'
p909
a(lp910
S'assault'
p911
aaS'Squadrons'
p912
aa(lp913
S'Sissubo'
p914
a(lp915
S'assault'
p916
aaS'Squadrons'
p917
aa(lp918
S'Yavin'
p919
a(lp920
S'assault'
p921
aaS'Squadrons'
p922
aa(lp923
S'ZavianAbyss'
p924
a(lp925
S'assault'
p926
aaS'Squadrons'
p927
aasg711
(lp928
sg713
(lp929
(lp930
S'TantiveIV'
p931
a(lp932
S'cap1'
p933
aaS'Battlefront2'
p934
aa(lp935
S'DeathStar'
p936
a(lp937
S'cap1'
p938
aaS'Battlefront2'
p939
aa(lp940
S'DeathStar2'
p941
a(lp942
S'onslaught'
p943
aaS'Battlefront2EA'
p944
aa(lp945
S'Vjun'
p946
a(lp947
S'teamDuel'
p948
aS'duel'
p949
aaS'JediAcademy'
p950
aa(lp951
S'GeneratorRoom'
p952
a(lp953
S'duel'
p954
aaS'JediAcademy'
p955
aa(lp956
S'ImperialShaft'
p957
a(lp958
S'duel'
p959
aaS'JediAcademy'
p960
aa(lp961
S'ImprialControlRoom'
p962
a(lp963
S'duel'
p964
aaS'JediAcademy'
p965
aa(lp966
S'imperialShuttleBay'
p967
a(lp968
S'duel'
p969
aaS'JediOutcast'
p970
aa(lp971
S'HangarBay72'
p972
a(lp973
S'duel'
p974
aaS'JediOutcast'
p975
aa(lp976
S'ImperialLabsRaven'
p977
a(lp978
S'duel'
p979
aS'teamDuel'
p980
aaS'JediOutcast'
p981
aa(lp982
S'DeathStar'
p983
a(lp984
S'teamDuel'
p985
aaS'JediOutcast'
p986
aa(lp987
S'StarDestroyer'
p988
a(lp989
S'teamDuel'
p990
aaS'JediOutcast'
p991
aa(lp992
S'Garrison27D'
p993
a(lp994
S'teamDuel'
p995
aS'cap2'
p996
aaS'JediOutcast'
p997
aasg738
S'ClimateShip'
p998
sg740
(lp999
(lp1000
S'TantiveIV'
p1001
a(lp1002
S'conquest'
p1003
aaS'Battlefront2'
p1004
aa(lp1005
S'DeathStar'
p1006
a(lp1007
S'conquest) '
p1008
aaS'Battlefront2'
p1009
aa(lp1010
S'DeathStar2'
p1011
a(lp1012
S'supremacy'
p1013
aS'attack'
p1014
aS'team'
p1015
aaS'Battlefront2EA'
p1016
aasba(ibackend
Climate
p1017
(dp1018
g709
(lp1019
sg711
(lp1020
sg713
(lp1021
(lp1022
S'Factory'
p1023
a(lp1024
S'cap2'
p1025
aaS'JediAcademy'
p1026
aa(lp1027
S'Vjun'
p1028
a(lp1029
S'teamDuel'
p1030
aS'duel'
p1031
aaS'JediAcademy'
p1032
aa(lp1033
S'GeneratorRoom'
p1034
a(lp1035
S'duel'
p1036
aaS'JediAcademy'
p1037
aa(lp1038
S'ImperialShaft'
p1039
a(lp1040
S'duel'
p1041
aaS'JediAcademy'
p1042
aa(lp1043
S'ImprialControlRoom'
p1044
a(lp1045
S'duel'
p1046
aaS'JediAcademy'
p1047
aa(lp1048
S'NarshadaaStreets'
p1049
a(lp1050
S'teamDuel'
p1051
aaS'JediOutcast'
p1052
aa(lp1053
S'WarringFactions'
p1054
a(lp1055
S'teamDuel'
p1056
aS'cap2'
p1057
aaS'JediOutcast'
p1058
aa(lp1059
S'GarbageFacility'
p1060
a(lp1061
S'teamDuel'
p1062
aaS'JediOutcast'
p1063
aa(lp1064
S'TrialPit'
p1065
a(lp1066
S'teamDuel'
p1067
aS'duel'
p1068
aaS'JediOutcast'
p1069
aasg738
S'ClimateCity'
p1070
sg740
(lp1071
sba(ibackend
Climate
p1072
(dp1073
g709
(lp1074
sg711
(lp1075
sg713
(lp1076
(lp1077
S'AbandonedCity'
p1078
a(lp1079
S'duel'
p1080
aaS'JediAcademy'
p1081
aa(lp1082
S'KorribanTombs'
p1083
a(lp1084
S'teamDuel'
p1085
aaS'JediAcademy'
p1086
aa(lp1087
S'CeremonialHall'
p1088
a(lp1089
S'duel'
p1090
aaS'JediOutcast'
p1091
aa(lp1092
S'LightSaberTraining'
p1093
a(lp1094
S'duel'
p1095
aaS'JediOutcast'
p1096
aa(lp1097
S'MassassiTemple'
p1098
a(lp1099
S'teamDuel'
p1100
aaS'JediOutcast'
p1101
aa(lp1102
S'TempleTournament'
p1103
a(lp1104
S'teamDuel'
p1105
aS'cap2'
p1106
aaS'JediOutcast'
p1107
aasg738
S'ClimateTemple'
p1108
sg740
(lp1109
sbasS'planets'
p1110
(lp1111
(ibackend
Planet
p1112
(dp1113
S'forceSide'
p1114
S'netural'
p1115
sS'climate'
p1116
S'city'
p1117
sg713
(lp1118
(lp1119
S'Coruscant'
p1120
a(lp1121
S'cap2'
p1122
aaS'Battlefront2'
p1123
aa(lp1124
S'Coruscant'
p1125
a(lp1126
S'cap2'
p1127
aaS'JediAcademy'
p1128
aasS'force'
p1129
S'medium'
p1130
sg738
g405
sS'support'
p1131
S'high'
p1132
sg25
I12
sS'creditProduction'
p1133
S'high'
p1134
sg31
I12
sg740
(lp1135
(lp1136
S'Coruscant'
p1137
a(lp1138
S'conquest'
p1139
aaS'Battlefront2'
p1140
aasS'galaxySize'
p1141
I600
sS'owner'
p1142
g36
sS'position'
p1143
S'(0,0)'
p1144
sg68
S'low'
p1145
sS'population'
p1146
S'high'
p1147
sba(ibackend
Planet
p1148
(dp1149
g1114
S'netural'
p1150
sg1116
S'snow'
p1151
sg713
(lp1152
(lp1153
S'Hoth'
p1154
a(lp1155
S'cap1'
p1156
aS'hunt'
p1157
aS'xl'
p1158
aaS'Battlefront2'
p1159
aasg1129
S'low'
p1160
sg738
g615
sg1131
S'medium'
p1161
sg25
I20
sg1133
S'low'
p1162
sg31
I12
sg740
(lp1163
(lp1164
S'Hoth'
p1165
a(lp1166
S'conquest'
p1167
aaS'Battlefront1'
p1168
aa(lp1169
S'TwilightHoth'
p1170
a(lp1171
S'walker'
p1172
aaS'Battlefront1EA'
p1173
aa(lp1174
S'OutpostBetaHoth'
p1175
a(lp1176
S'walker'
p1177
aaS'Battlefront1EA'
p1178
aa(lp1179
S'Hoth'
p1180
a(lp1181
S'conquest'
p1182
aaS'Battlefront2'
p1183
aa(lp1184
S'hoth'
p1185
a(lp1186
S'supremacy'
p1187
aS'defend'
p1188
aaS'Battlefront2EA'
p1189
aasg1141
I600
sg1142
g36
sg1143
S'(0,-400)'
p1190
sg68
S'low'
p1191
sg1146
S'low'
p1192
sba(ibackend
Planet
p1193
(dp1194
g1114
S'netural'
p1195
sg1116
S'snow'
p1196
sg713
(lp1197
sg1129
S'High'
p1198
sg738
g465
sg1131
S'medium'
p1199
sg25
I14
sg1133
S'low'
p1200
sg31
I20
sg740
(lp1201
sg1141
I600
sg1142
g36
sg1143
S'(400,-100)'
p1202
sg68
S'low'
p1203
sg1146
S'low'
p1204
sba(ibackend
Planet
p1205
(dp1206
g1114
S'netural'
p1207
sg1116
S'lava'
p1208
sg713
(lp1209
sg1129
S'medium'
p1210
sg738
g591
sg1131
S'medium'
p1211
sg25
I19
sg1133
S'medium'
p1212
sg31
I14
sg740
(lp1213
sg1141
I600
sg1142
g36
sg1143
S'(100,-350)'
p1214
sg68
S'medium'
p1215
sg1146
S'medium'
p1216
sba(ibackend
Planet
p1217
(dp1218
g1114
S'dark'
p1219
sg1116
S'lava'
p1220
sg713
(lp1221
(lp1222
S'Mustafar'
p1223
a(lp1224
S'cap2'
p1225
aaS'Battlefront2'
p1226
aasg1129
S'high'
p1227
sg738
g642
sg1131
S'high'
p1228
sg25
I21
sg1133
S'medium'
p1229
sg31
I13
sg740
(lp1230
(lp1231
S'Mustafar'
p1232
a(lp1233
S'conquest'
p1234
aaS'Battlefront2'
p1235
aasg1141
I600
sg1142
g36
sg1143
S'(50,-450)'
p1236
sg68
S'high'
p1237
sg1146
S'low'
p1238
sba(ibackend
Planet
p1239
(dp1240
g1114
S'light'
p1241
sg1116
S'forest'
p1242
sg713
(lp1243
(lp1244
S'Endor'
p1245
a(lp1246
S'cap1'
p1247
aS'hunt'
p1248
aaS'Battlefront2'
p1249
aasg1129
S'medium'
p1250
sg738
g556
sg1131
S'high'
p1251
sg25
I18
sg1133
S'low'
p1252
sg31
I8
sg740
(lp1253
(lp1254
S'EndorBunker'
p1255
a(lp1256
S'conquest'
p1257
aaS'Battlefront1'
p1258
aa(lp1259
S'Endor'
p1260
a(lp1261
S'conquest'
p1262
aaS'Battlefront2'
p1263
aa(lp1264
S'Endor'
p1265
a(lp1266
S'attack'
p1267
aaS'Battlefront2EA'
p1268
aasg1141
I600
sg1142
S'newRepublic'
p1269
sg1143
S'(-200,-300)'
p1270
sg68
S'low'
p1271
sg1146
S'medium'
p1272
sba(ibackend
Planet
p1273
(dp1274
g1114
S'netural'
p1275
sg1116
S'desert'
p1276
sg713
(lp1277
(lp1278
S'JabbasPalace'
p1279
a(lp1280
S'cap1'
p1281
aaS'Battlefront2'
p1282
aa(lp1283
S'MosEisely'
p1284
a(lp1285
S'hunt'
p1286
aS'cap2'
p1287
aaS'Battlefront2'
p1288
aa(lp1289
S'JabasPalace'
p1290
a(lp1291
S'onslaught'
p1292
aaS'Battlefront2EA'
p1293
aa(lp1294
S'TatooineCity'
p1295
a(lp1296
S'teamDuel'
p1297
aaS'JediAcademy'
p1298
aa(lp1299
S'RancorPit'
p1300
a(lp1301
S'duel'
p1302
aaS'JediAcademy'
p1303
aasg1129
S'low'
p1304
sg738
g568
sg1131
S'medium'
p1305
sg25
I18
sg1133
S'medium'
p1306
sg31
I18
sg740
(lp1307
(lp1308
S'JabbasPalace'
p1309
a(lp1310
S'conquest'
p1311
aaS'Battlefront1'
p1312
aa(lp1313
S'MosEisely'
p1314
a(lp1315
S'conquest'
p1316
aaS'Battlefront1'
p1317
aa(lp1318
S'TatooineDuneSea'
p1319
a(lp1320
S'conquest'
p1321
aaS'Battlefront1'
p1322
aa(lp1323
S'MosEisely'
p1324
a(lp1325
S'conquest'
p1326
aaS'Battlefront2'
p1327
aa(lp1328
S'JabbasPalace'
p1329
a(lp1330
S'conquest'
p1331
aaS'Battlefront2'
p1332
aa(lp1333
S'JabasPalace'
p1334
a(lp1335
S'team'
p1336
aaS'Battlefront2EA'
p1337
aasg1141
I600
sg1142
S'newRepublic'
p1338
sg1143
S'(300,-300)'
p1339
sg68
S'low'
p1340
sg1146
S'medium'
p1341
sba(ibackend
Planet
p1342
(dp1343
g1114
S'netural'
p1344
sg1116
S'forest'
p1345
sg713
(lp1346
(lp1347
S'kashyyyk'
p1348
a(lp1349
S'cap2'
p1350
aS'xl'
p1351
aaS'Battlefront2'
p1352
aasg1129
S'low'
p1353
sg738
g383
sg1131
S'medium'
p1354
sg25
I11
sg1133
S'medium'
p1355
sg31
I16
sg740
(lp1356
(lp1357
S'KashyyykDocks'
p1358
a(lp1359
S'conquest'
p1360
aaS'Battlefront1'
p1361
aa(lp1362
S'KashyyykIslands'
p1363
a(lp1364
S'conquest'
p1365
aaS'Battlefront1'
p1366
aa(lp1367
S'Kashyyyk'
p1368
a(lp1369
S'conquest'
p1370
aaS'Battlefront2'
p1371
aasg1141
I600
sg1142
g3
sg1143
S'(200,50)'
p1372
sg68
S'medium'
p1373
sg1146
S'medium'
p1374
sba(ibackend
Planet
p1375
(dp1376
g1114
S'netural'
p1377
sg1116
S'city'
p1378
sg713
(lp1379
(lp1380
S'Bespin'
p1381
a(lp1382
S'duel'
p1383
aaS'JediAcademy'
p1384
aa(lp1385
S'BespinStreets'
p1386
a(lp1387
S'teamduel'
p1388
aaS'JediOutcast'
p1389
aa(lp1390
S'BespinExaustShaft'
p1391
a(lp1392
S'teamDuel'
p1393
aS'cap2'
p1394
aaS'JediOutcast'
p1395
aa(lp1396
S'CarbonChamber'
p1397
a(lp1398
S'duel'
p1399
aaS'JediOutcast'
p1400
aa(lp1401
S'BespinAirVanes'
p1402
a(lp1403
S'duel'
p1404
aaS'JediOutcast'
p1405
aa(lp1406
S'BattleGroundJedi'
p1407
a(lp1408
S'duel'
p1409
aaS'JediOutcast'
p1410
aasg1129
S'low'
p1411
sg738
g589
sg1131
S'medium'
p1412
sg25
I19
sg1133
S'medium'
p1413
sg31
I13
sg740
(lp1414
(lp1415
S'BespinPlatfroms'
p1416
a(lp1417
S'conquest'
p1418
aaS'Battlefront1'
p1419
aa(lp1420
S'BespinCloudCity'
p1421
a(lp1422
S'conquest'
p1423
aaS'Battlefront1'
p1424
aa(lp1425
S'Bespin'
p1426
a(lp1427
S'team'
p1428
aaS'Battlefront2EA'
p1429
aasg1141
I600
sg1142
g36
sg1143
S'(50,-350)'
p1430
sg68
S'high'
p1431
sg1146
S'high'
p1432
sba(ibackend
Planet
p1433
(dp1434
g1114
S'netural'
p1435
sg1116
S'plains, temple'
p1436
sg713
(lp1437
(lp1438
S'Naboo'
p1439
a(lp1440
S'cap2'
p1441
aS'hunt'
p1442
aaS'Battlefront2'
p1443
aasg1129
S'low'
p1444
sg738
g565
sg1131
S'medium'
p1445
sg25
I18
sg1133
S'medium'
p1446
sg31
I16
sg740
(lp1447
(lp1448
S'NabooPlains'
p1449
a(lp1450
S'conquest'
p1451
aaS'Battlefront1'
p1452
aa(lp1453
S'NabooTheed'
p1454
a(lp1455
S'conquest'
p1456
aaS'Battlefront1'
p1457
aa(lp1458
S'Naboo'
p1459
a(lp1460
S'conquest'
p1461
aaS'Battlefront2'
p1462
aasg1141
I600
sg1142
g36
sg1143
S'(200,-300)'
p1463
sg68
S'medium'
p1464
sg1146
S'medium'
p1465
sba(ibackend
Planet
p1466
(dp1467
g1114
S'netural'
p1468
sg1116
S'forest, temple'
p1469
sg713
(lp1470
(lp1471
S'Yavin4'
p1472
a(lp1473
S'cap1'
p1474
aaS'Battlefront2'
p1475
aa(lp1476
S'Yavin4Temple'
p1477
a(lp1478
S'onslaught'
p1479
aaS'Battlefront2EA'
p1480
aa(lp1481
S'Yavin'
p1482
a(lp1483
S'cap2'
p1484
aS'duel'
p1485
aaS'JediAcademy'
p1486
aasg1129
S'high'
p1487
sg738
g306
sg1131
S'medium'
p1488
sg25
I8
sg1133
S'low'
p1489
sg31
I16
sg740
(lp1490
(lp1491
S'Yavin4Temple'
p1492
a(lp1493
S'conquest'
p1494
aaS'Battlefront1'
p1495
aa(lp1496
S'Yavin4Arena'
p1497
a(lp1498
S'conquest'
p1499
aaS'Battlefront1'
p1500
aa(lp1501
S'Yavin4'
p1502
a(lp1503
S'conquest'
p1504
aaS'Battlefront2'
p1505
aa(lp1506
S'Yavin4'
p1507
a(lp1508
S'supremacy'
p1509
aS'team'
p1510
aS'defend'
p1511
aaS'Battlefront2EA'
p1512
aasg1141
I600
sg1142
g3
sg1143
S'(200,200)'
p1513
sg68
S'low'
p1514
sg1146
S'low'
p1515
sba(ibackend
Planet
p1516
(dp1517
g1114
S'light'
p1518
sg1116
S'forest'
p1519
sg713
(lp1520
(lp1521
S'Dagobah'
p1522
a(lp1523
S'cap1'
p1524
aaS'Battlefront2'
p1525
aasg1129
S'high'
p1526
sg738
g671
sg1131
S'high'
p1527
sg25
I22
sg1133
S'low'
p1528
sg31
I15
sg740
(lp1529
(lp1530
S'Dagobah'
p1531
a(lp1532
S'conquest'
p1533
aaS'Battlefront2'
p1534
aasg1141
I600
sg1142
S'newRepublic'
p1535
sg1143
S'(150,-500)'
p1536
sg68
S'low'
p1537
sg1146
S'low'
p1538
sba(ibackend
Planet
p1539
(dp1540
g1114
S'neutral'
p1541
sg1116
S'flowers'
p1542
sg713
(lp1543
(lp1544
S'Felucia'
p1545
a(lp1546
S'cap1'
p1547
aaS'Battlefront2'
p1548
aasg1129
S'low'
p1549
sg738
g309
sg1131
S'medium'
p1550
sg25
I8
sg1133
S'medium'
p1551
sg31
I18
sg740
(lp1552
(lp1553
S'Felucia'
p1554
a(lp1555
S'conquest'
p1556
aaS'Battlefront2'
p1557
aasg1141
I600
sg1142
g3
sg1143
S'(300,200)'
p1558
sg68
S'medium'
p1559
sg1146
S'medium'
p1560
sba(ibackend
Planet
p1561
(dp1562
g1114
S'neutral'
p1563
sg1116
S'ocean'
p1564
sg713
(lp1565
sg1129
S'low'
p1566
sg738
g544
sg1131
S'medium'
p1567
sg25
I17
sg1133
S'medium'
p1568
sg31
I22
sg740
(lp1569
(lp1570
S'Kamino'
p1571
a(lp1572
S'conquest'
p1573
aaS'Battlefront2'
p1574
aasg1141
I600
sg1142
g36
sg1143
S'(500,-250)'
p1575
sg68
S'medium'
p1576
sg1146
S'medium'
p1577
sba(ibackend
Planet
p1578
(dp1579
g1114
S'neutral'
p1580
sg1116
S'desert'
p1581
sg713
(lp1582
sg1129
S'low'
p1583
sg738
g515
sg1131
S'medium'
p1584
sg25
I16
sg1133
S'medium'
p1585
sg31
I19
sg740
(lp1586
(lp1587
S'Scarif'
p1588
a(lp1589
S'supremacy'
p1590
aS'attack'
p1591
aaS'Battlefront2EA'
p1592
aasg1141
I600
sg1142
g36
sg1143
S'(350,-200)'
p1593
sg68
S'medium'
p1594
sg1146
S'medium'
p1595
sba(ibackend
Planet
p1596
(dp1597
g1114
S'neutral'
p1598
sg1116
S'city, ship'
p1599
sg713
(lp1600
(lp1601
S'Kessel'
p1602
a(lp1603
S'onslaught) '
p1604
aaS'Battlefront2EA'
p1605
aasg1129
S'low'
p1606
sg738
g412
sg1131
S'medium'
p1607
sg25
I12
sg1133
S'high'
p1608
sg31
I18
sg740
(lp1609
(lp1610
S'Kessel'
p1611
a(lp1612
S'team) '
p1613
aaS'Battlefront2EA'
p1614
aasg1141
I600
sg1142
g36
sg1143
S'(300,0)'
p1615
sg68
S'high'
p1616
sg1146
S'medium'
p1617
sba(ibackend
Planet
p1618
(dp1619
g1114
S'neutral'
p1620
sg1116
S'ship'
p1621
sg713
(lp1622
(lp1623
S'PolisMassa'
p1624
a(lp1625
S'cap2'
p1626
aaS'Battlefront2'
p1627
aasg1129
S'low'
p1628
sg738
g669
sg1131
S'medium'
p1629
sg25
I22
sg1133
S'medium'
p1630
sg31
I14
sg740
(lp1631
(lp1632
S'PolisMassa'
p1633
a(lp1634
S'conquest'
p1635
aaS'Battlefront2'
p1636
aasg1141
I600
sg1142
S'newRepublic'
p1637
sg1143
S'(100,-500)'
p1638
sg68
S'high'
p1639
sg1146
S'low'
p1640
sba(ibackend
Planet
p1641
(dp1642
g1114
S'neutral'
p1643
sg1116
S'lava'
p1644
sg713
(lp1645
(lp1646
S'Mygeeto'
p1647
a(lp1648
S'cap2'
p1649
aaS'Battlefront2'
p1650
aasg1129
S'low'
p1651
sg738
g251
sg1131
S'medium'
p1652
sg25
I6
sg1133
S'medium'
p1653
sg31
I12
sg740
(lp1654
(lp1655
S'Mygeeto'
p1656
a(lp1657
S'conquest'
p1658
aaS'Battlefront2'
p1659
aasg1141
I600
sg1142
g3
sg1143
S'(0,300)'
p1660
sg68
S'medium'
p1661
sg1146
S'medium'
p1662
sbasS'costInfiltrationTeam'
p1663
S'500c'
p1664
sS'sides'
p1665
(lp1666
S'newRepublic'
p1667
ag3
asS'size'
p1668
I600
sbsb.